target datalayout = "e-m:e-p270:32:32-p271:32:32-p272:64:64-i64:64-i128:128-f80:128-n8:16:32:64-S128"
target triple = "x86_64-pc-linux-gnu"

%struct._zval_struct = type { %union._zend_value, %union.anon, %union.anon.2 }
%union._zend_value = type { i64 }
%union.anon = type { i32 }
%union.anon.2 = type { i32 }
%struct._zend_constant = type { %struct._zval_struct, ptr, ptr }

@zend_string_init_interned = external global ptr, align 8

; Function Attrs: nounwind uwtable
define dso_local void @zend_register_null_constant(ptr noundef %0, i64 noundef %1, i32 noundef %2, i32 noundef %3) #0 {
  %5 = alloca ptr, align 8
  %6 = alloca i64, align 8
  %7 = alloca i32, align 4
  %8 = alloca i32, align 4
  %9 = alloca %struct._zend_constant, align 8
  store ptr %0, ptr %5, align 8, !tbaa !56
  store i64 %1, ptr %6, align 8, !tbaa !57
  store i32 %2, ptr %7, align 4, !tbaa !22
  store i32 %3, ptr %8, align 4, !tbaa !22
  call void @llvm.lifetime.start.p0(i64 32, ptr %9) #12
  br label %10

10:                                               ; preds = %4
  %11 = getelementptr inbounds nuw %struct._zend_constant, ptr %9, i32 0, i32 0
  %12 = getelementptr inbounds nuw %struct._zval_struct, ptr %11, i32 0, i32 1
  store i32 1, ptr %12, align 8, !tbaa !9
  br label %13

13:                                               ; preds = %10
  br label %14

14:                                               ; preds = %13
  br label %15

15:                                               ; preds = %14
  %16 = load i32, ptr %7, align 4, !tbaa !22
  %17 = and i32 %16, 255
  %18 = load i32, ptr %8, align 4, !tbaa !22
  %19 = shl i32 %18, 8
  %20 = or i32 %17, %19
  %21 = getelementptr inbounds nuw %struct._zend_constant, ptr %9, i32 0, i32 0
  %22 = getelementptr inbounds nuw %struct._zval_struct, ptr %21, i32 0, i32 2
  store i32 %20, ptr %22, align 4, !tbaa !9
  br label %23

23:                                               ; preds = %15
  br label %24

24:                                               ; preds = %23
  %25 = load ptr, ptr @zend_string_init_interned, align 8, !tbaa !54
  %26 = load ptr, ptr %5, align 8, !tbaa !56
  %27 = load i64, ptr %6, align 8, !tbaa !57
  %28 = load i32, ptr %7, align 4, !tbaa !22
  %29 = and i32 %28, 1
  %30 = icmp ne i32 %29, 0
  %31 = call ptr %25(ptr noundef %26, i64 noundef %27, i1 noundef zeroext %30)
  %32 = getelementptr inbounds nuw %struct._zend_constant, ptr %9, i32 0, i32 1
  store ptr %31, ptr %32, align 8, !tbaa !12
  %33 = call i32 @zend_register_constant(ptr noundef %9)
  call void @llvm.lifetime.end.p0(i64 32, ptr %9) #12
  ret void
}