; Function Attrs: nounwind uwtable
define dso_local void @zend_register_null_constant(ptr noundef %0, i64 noundef %1, i32 noundef %2, i32 noundef %3) local_unnamed_addr #0 {
  %5 = alloca %struct._zend_constant, align 8
  call void @llvm.lifetime.start.p0(i64 32, ptr nonnull %5) #11
  %6 = getelementptr inbounds nuw i8, ptr %5, i64 8
  store i32 1, ptr %6, align 8, !tbaa !4
  %7 = and i32 %2, 255
  %8 = shl i32 %3, 8
  %9 = or disjoint i32 %8, %7
  %10 = getelementptr inbounds nuw i8, ptr %5, i64 12
  store i32 %9, ptr %10, align 4, !tbaa !4
  %11 = load ptr, ptr @zend_string_init_interned, align 8, !tbaa !48
  %12 = and i32 %2, 1
  %13 = icmp ne i32 %12, 0
  %14 = tail call ptr %11(ptr noundef %0, i64 noundef %1, i1 noundef zeroext %13) #11
  %15 = getelementptr inbounds nuw i8, ptr %5, i64 16
  store ptr %14, ptr %15, align 8, !tbaa !10
  %16 = call i32 @zend_register_constant(ptr noundef nonnull %5)
  call void @llvm.lifetime.end.p0(i64 32, ptr nonnull %5) #11
  ret void
}